MPLINK 5.01, LINKER
Linker Map File - Created Sun Jul 13 14:02:49 2014

                                 Section Info
                  Section       Type    Address   Location Size(Bytes)
                ---------  ---------  ---------  ---------  ---------
                   .org_0       code   0x000000    program   0x000002
                   .cinit    romdata   0x000001    program   0x000004
                   .org_1       code   0x000004    program   0x000996
.config_8007_BUILD/DEFAULT/DEBUG/MAIN.O       code   0x008007    program   0x000002
.config_8008_BUILD/DEFAULT/DEBUG/MAIN.O       code   0x008008    program   0x000002
               .udata_shr      udata   0x000070       data   0x00000f
                    bank7      udata   0x0003a0       data   0x00000a
                    bank8      udata   0x000420       data   0x000002



                              Program Memory Usage 
                               Start         End      
                           ---------   ---------      
                            0x000000    0x000002      
                            0x000004    0x0004ce      
                            0x008007    0x008008      
            1232 out of 8199 program addresses used, program memory utilization is 15%



                              Symbols - Sorted by Name
                     Name    Address   Location    Storage File                     
                ---------  ---------  ---------  --------- ---------                
     ClassSpecificRequest   0x00021d    program     static E:\Pic_Projects\MPLABXProjects\USB.X\Main.asm
     ClearEndpointFeature   0x000217    program     static E:\Pic_Projects\MPLABXProjects\USB.X\Main.asm
             ClearFeature   0x0001ae    program     static E:\Pic_Projects\MPLABXProjects\USB.X\Main.asm
    ClearInterfaceFeature   0x0001f2    program     static E:\Pic_Projects\MPLABXProjects\USB.X\Main.asm
                      Clr   0x000448    program     static E:\Pic_Projects\MPLABXProjects\USB.X\Test.inc
  ConfigurationDescriptor   0x0002f9    program     static E:\Pic_Projects\MPLABXProjects\USB.X\Descriptors.inc
         DeviceDescriptor   0x0002d2    program     static E:\Pic_Projects\MPLABXProjects\USB.X\Descriptors.inc
             DeviceToHost   0x00014c    program     static E:\Pic_Projects\MPLABXProjects\USB.X\Main.asm
                   EP0_In   0x00010b    program     static E:\Pic_Projects\MPLABXProjects\USB.X\Main.asm
                  EP0_Out   0x0000fd    program     static E:\Pic_Projects\MPLABXProjects\USB.X\Main.asm
                   EP1_In   0x000285    program     static E:\Pic_Projects\MPLABXProjects\USB.X\Main.asm
                  EP1_Out   0x000289    program     static E:\Pic_Projects\MPLABXProjects\USB.X\Main.asm
                     EP_0   0x0000f9    program     static E:\Pic_Projects\MPLABXProjects\USB.X\Main.asm
                     EP_1   0x000280    program     static E:\Pic_Projects\MPLABXProjects\USB.X\Main.asm
    Endpoint1InDescriptor   0x00032a    program     static E:\Pic_Projects\MPLABXProjects\USB.X\Descriptors.inc
   Endpoint1OutDescriptor   0x00033b    program     static E:\Pic_Projects\MPLABXProjects\USB.X\Descriptors.inc
       EndpointDescriptor   0x000327    program     static E:\Pic_Projects\MPLABXProjects\USB.X\Descriptors.inc
           EndpointToHost   0x000184    program     static E:\Pic_Projects\MPLABXProjects\USB.X\Main.asm
             EpSynchFrame   0x00021b    program     static E:\Pic_Projects\MPLABXProjects\USB.X\Main.asm
                    Flash   0x00041d    program     static E:\Pic_Projects\MPLABXProjects\USB.X\Test.inc
         GetConfiguration   0x0001c6    program     static E:\Pic_Projects\MPLABXProjects\USB.X\Main.asm
            GetDescriptor   0x00028e    program     static E:\Pic_Projects\MPLABXProjects\USB.X\Descriptors.inc
        GetEndpointStatus   0x00020b    program     static E:\Pic_Projects\MPLABXProjects\USB.X\Main.asm
                  GetIdle   0x000259    program     static E:\Pic_Projects\MPLABXProjects\USB.X\Main.asm
             GetInterface   0x0001f8    program     static E:\Pic_Projects\MPLABXProjects\USB.X\Main.asm
       GetInterfaceStatus   0x0001e6    program     static E:\Pic_Projects\MPLABXProjects\USB.X\Main.asm
              GetProtocol   0x00025b    program     static E:\Pic_Projects\MPLABXProjects\USB.X\Main.asm
                GetReport   0x000238    program     static E:\Pic_Projects\MPLABXProjects\USB.X\Main.asm
                GetStatus   0x0001a2    program     static E:\Pic_Projects\MPLABXProjects\USB.X\Main.asm
                      Grn   0x000442    program     static E:\Pic_Projects\MPLABXProjects\USB.X\Test.inc
            HIDDescriptor   0x0003ae    program     static E:\Pic_Projects\MPLABXProjects\USB.X\Descriptors.inc
             HostToDevice   0x000135    program     static E:\Pic_Projects\MPLABXProjects\USB.X\Main.asm
           HostToEndpoint   0x000179    program     static E:\Pic_Projects\MPLABXProjects\USB.X\Main.asm
          HostToInterface   0x00015b    program     static E:\Pic_Projects\MPLABXProjects\USB.X\Main.asm
                     Idle   0x000076    program     static E:\Pic_Projects\MPLABXProjects\USB.X\Main.asm
                       In   0x000194    program     static E:\Pic_Projects\MPLABXProjects\USB.X\Main.asm
                 InitTest   0x00047e    program     static E:\Pic_Projects\MPLABXProjects\USB.X\Test.inc
                  InitUSB   0x000025    program     static E:\Pic_Projects\MPLABXProjects\USB.X\Main.asm
                Init_TMR2   0x0000ce    program     static E:\Pic_Projects\MPLABXProjects\USB.X\Main.asm
      InterfaceDescriptor   0x000312    program     static E:\Pic_Projects\MPLABXProjects\USB.X\Descriptors.inc
          InterfaceToHost   0x00016a    program     static E:\Pic_Projects\MPLABXProjects\USB.X\Main.asm
                     Main   0x0000d6    program     static E:\Pic_Projects\MPLABXProjects\USB.X\Main.asm
                     Orng   0x00043f    program     static E:\Pic_Projects\MPLABXProjects\USB.X\Test.inc
                      Out   0x00019a    program     static E:\Pic_Projects\MPLABXProjects\USB.X\Main.asm
                    Pause   0x00040a    program     static E:\Pic_Projects\MPLABXProjects\USB.X\Test.inc
                      Red   0x00043c    program     static E:\Pic_Projects\MPLABXProjects\USB.X\Test.inc
         ReportDescriptor   0x0003c3    program     static E:\Pic_Projects\MPLABXProjects\USB.X\Descriptors.inc
       Reset_EP0_InBuffer   0x000093    program     static E:\Pic_Projects\MPLABXProjects\USB.X\Main.asm
      Reset_EP0_OutBuffer   0x00008c    program     static E:\Pic_Projects\MPLABXProjects\USB.X\Main.asm
       Reset_EP1_InBuffer   0x0000a1    program     static E:\Pic_Projects\MPLABXProjects\USB.X\Main.asm
      Reset_EP1_OutBuffer   0x00009a    program     static E:\Pic_Projects\MPLABXProjects\USB.X\Main.asm
                 SendData   0x0000c2    program     static E:\Pic_Projects\MPLABXProjects\USB.X\Main.asm
            Send_0Len_pkt   0x0000b8    program     static E:\Pic_Projects\MPLABXProjects\USB.X\Main.asm
               ServiceUSB   0x0000f4    program     static E:\Pic_Projects\MPLABXProjects\USB.X\Main.asm
               SetAddress   0x0001b2    program     static E:\Pic_Projects\MPLABXProjects\USB.X\Main.asm
         SetConfiguration   0x0001d4    program     static E:\Pic_Projects\MPLABXProjects\USB.X\Main.asm
            SetDescriptor   0x0001c4    program     static E:\Pic_Projects\MPLABXProjects\USB.X\Main.asm
       SetEndpointFeature   0x000219    program     static E:\Pic_Projects\MPLABXProjects\USB.X\Main.asm
               SetFeature   0x0001b0    program     static E:\Pic_Projects\MPLABXProjects\USB.X\Main.asm
                  SetIdle   0x000266    program     static E:\Pic_Projects\MPLABXProjects\USB.X\Main.asm
             SetInterface   0x000209    program     static E:\Pic_Projects\MPLABXProjects\USB.X\Main.asm
      SetInterfaceFeature   0x0001f4    program     static E:\Pic_Projects\MPLABXProjects\USB.X\Main.asm
              SetProtocol   0x000268    program     static E:\Pic_Projects\MPLABXProjects\USB.X\Main.asm
                SetReport   0x00025d    program     static E:\Pic_Projects\MPLABXProjects\USB.X\Main.asm
                    Setup   0x000115    program     static E:\Pic_Projects\MPLABXProjects\USB.X\Main.asm
                    Sh_xy   0x00048f    program     static E:\Pic_Projects\MPLABXProjects\USB.X\Test.inc
                 ShowByte   0x000460    program     static E:\Pic_Projects\MPLABXProjects\USB.X\Test.inc
                ShowBytes   0x00049e    program     static E:\Pic_Projects\MPLABXProjects\USB.X\Test.inc
       Stall_EP0_InBuffer   0x0000ac    program     static E:\Pic_Projects\MPLABXProjects\USB.X\Main.asm
      Stall_EP0_OutBuffer   0x0000a8    program     static E:\Pic_Projects\MPLABXProjects\USB.X\Main.asm
       Stall_EP1_InBuffer   0x0000b4    program     static E:\Pic_Projects\MPLABXProjects\USB.X\Main.asm
      Stall_EP1_OutBuffer   0x0000b0    program     static E:\Pic_Projects\MPLABXProjects\USB.X\Main.asm
              StoreReport   0x000260    program     static E:\Pic_Projects\MPLABXProjects\USB.X\Main.asm
                  String0   0x000359    program     static E:\Pic_Projects\MPLABXProjects\USB.X\Descriptors.inc
                  String1   0x000364    program     static E:\Pic_Projects\MPLABXProjects\USB.X\Descriptors.inc
                  String2   0x000387    program     static E:\Pic_Projects\MPLABXProjects\USB.X\Descriptors.inc
         StringDescriptor   0x00034c    program     static E:\Pic_Projects\MPLABXProjects\USB.X\Descriptors.inc
                     TLog   0x0004c3    program     static E:\Pic_Projects\MPLABXProjects\USB.X\Test.inc
                 USBReset   0x000061    program     static E:\Pic_Projects\MPLABXProjects\USB.X\Main.asm
                WriteAddr   0x0001ba    program     static E:\Pic_Projects\MPLABXProjects\USB.X\Main.asm
             _.org_1_0080   0x000080    program     static E:\Pic_Projects\MPLABXProjects\USB.X\Main.asm
             _.org_1_04C1   0x0004c1    program     static E:\Pic_Projects\MPLABXProjects\USB.X\Test.inc
                     _Grn   0x000445    program     static E:\Pic_Projects\MPLABXProjects\USB.X\Test.inc
                   act_cf   0x000084    program     static E:\Pic_Projects\MPLABXProjects\USB.X\Main.asm
               configured   0x0001dc    program     static E:\Pic_Projects\MPLABXProjects\USB.X\Main.asm
                    ds_ex   0x0004c1    program     static E:\Pic_Projects\MPLABXProjects\USB.X\Test.inc
                      err   0x000011    program     static E:\Pic_Projects\MPLABXProjects\USB.X\Main.asm
                 exit_int   0x000020    program     static E:\Pic_Projects\MPLABXProjects\USB.X\Main.asm
              fallthrough   0x000237    program     static E:\Pic_Projects\MPLABXProjects\USB.X\Main.asm
                    floff   0x000431    program     static E:\Pic_Projects\MPLABXProjects\USB.X\Test.inc
                floffC_bk   0x000433    program     static E:\Pic_Projects\MPLABXProjects\USB.X\Test.inc
                 floff_bk   0x000435    program     static E:\Pic_Projects\MPLABXProjects\USB.X\Test.inc
                     flon   0x000428    program     static E:\Pic_Projects\MPLABXProjects\USB.X\Test.inc
                 flonC_bk   0x00042b    program     static E:\Pic_Projects\MPLABXProjects\USB.X\Test.inc
                  flon_bk   0x00042d    program     static E:\Pic_Projects\MPLABXProjects\USB.X\Test.inc
         getFeatureReport   0x000257    program     static E:\Pic_Projects\MPLABXProjects\USB.X\Main.asm
           getInputReport   0x00024c    program     static E:\Pic_Projects\MPLABXProjects\USB.X\Main.asm
                       hi   0x000465    program     static E:\Pic_Projects\MPLABXProjects\USB.X\Test.inc
                     idle   0x00001a    program     static E:\Pic_Projects\MPLABXProjects\USB.X\Main.asm
          ifGetDescriptor   0x0001f6    program     static E:\Pic_Projects\MPLABXProjects\USB.X\Main.asm
                    incGD   0x000456    program     static E:\Pic_Projects\MPLABXProjects\USB.X\Test.inc
                    incSA   0x00045b    program     static E:\Pic_Projects\MPLABXProjects\USB.X\Test.inc
                   it_clr   0x00048b    program     static E:\Pic_Projects\MPLABXProjects\USB.X\Test.inc
                       lo   0x000473    program     static E:\Pic_Projects\MPLABXProjects\USB.X\Test.inc
                  loop_bk   0x0000e7    program     static E:\Pic_Projects\MPLABXProjects\USB.X\Main.asm
                      nSA   0x000498    program     static E:\Pic_Projects\MPLABXProjects\USB.X\Test.inc
                   pll_bk   0x000058    program     static E:\Pic_Projects\MPLABXProjects\USB.X\Main.asm
                  psC0_bk   0x000412    program     static E:\Pic_Projects\MPLABXProjects\USB.X\Test.inc
                  psC1_bk   0x000414    program     static E:\Pic_Projects\MPLABXProjects\USB.X\Test.inc
                   psT_bk   0x000416    program     static E:\Pic_Projects\MPLABXProjects\USB.X\Test.inc
                     rset   0x00001e    program     static E:\Pic_Projects\MPLABXProjects\USB.X\Main.asm
                   se0_bk   0x00005d    program     static E:\Pic_Projects\MPLABXProjects\USB.X\Main.asm
                    sendD   0x0002c1    program     static E:\Pic_Projects\MPLABXProjects\USB.X\Descriptors.inc
          send_bAlternate   0x0001ff    program     static E:\Pic_Projects\MPLABXProjects\USB.X\Main.asm
            send_data_int   0x00026a    program     static E:\Pic_Projects\MPLABXProjects\USB.X\Main.asm
                  setConf   0x000451    program     static E:\Pic_Projects\MPLABXProjects\USB.X\Test.inc
                  su_exit   0x00018f    program     static E:\Pic_Projects\MPLABXProjects\USB.X\Main.asm
                     tRst   0x00044b    program     static E:\Pic_Projects\MPLABXProjects\USB.X\Test.inc
                     t_In   0x0004bd    program     static E:\Pic_Projects\MPLABXProjects\USB.X\Test.inc
                    t_out   0x0004a9    program     static E:\Pic_Projects\MPLABXProjects\USB.X\Test.inc
                  tranCom   0x00001c    program     static E:\Pic_Projects\MPLABXProjects\USB.X\Main.asm
                   unSupp   0x0002bd    program     static E:\Pic_Projects\MPLABXProjects\USB.X\Descriptors.inc
                     ADDR   0x000072       data     static E:\Pic_Projects\MPLABXProjects\USB.X\Main.asm
                   COUNT0   0x00007c       data     static E:\Pic_Projects\MPLABXProjects\USB.X\Main.asm
                   COUNT1   0x00007d       data     static E:\Pic_Projects\MPLABXProjects\USB.X\Main.asm
             Data_wLength   0x000075       data     static E:\Pic_Projects\MPLABXProjects\USB.X\Main.asm
          DescriptorIndex   0x000077       data     static E:\Pic_Projects\MPLABXProjects\USB.X\Main.asm
         DescriptorLength   0x000078       data     static E:\Pic_Projects\MPLABXProjects\USB.X\Main.asm
           DescriptorType   0x000076       data     static E:\Pic_Projects\MPLABXProjects\USB.X\Main.asm
             Device_State   0x000070       data     static E:\Pic_Projects\MPLABXProjects\USB.X\Main.asm
              EP1_dev_req   0x00007b       data     static E:\Pic_Projects\MPLABXProjects\USB.X\Main.asm
                       IN   0x000079       data     static E:\Pic_Projects\MPLABXProjects\USB.X\Main.asm
                     LEDS   0x0003a7       data     static E:\Pic_Projects\MPLABXProjects\USB.X\Main.asm
               MaskedInts   0x000071       data     static E:\Pic_Projects\MPLABXProjects\USB.X\Main.asm
                      OUT   0x00007a       data     static E:\Pic_Projects\MPLABXProjects\USB.X\Main.asm
                      PID   0x000074       data     static E:\Pic_Projects\MPLABXProjects\USB.X\Main.asm
                       S0   0x000421       data     static E:\Pic_Projects\MPLABXProjects\USB.X\Main.asm
                       SC   0x000420       data     static E:\Pic_Projects\MPLABXProjects\USB.X\Main.asm
                    TEMP0   0x0003a4       data     static E:\Pic_Projects\MPLABXProjects\USB.X\Main.asm
                    TEMP1   0x0003a5       data     static E:\Pic_Projects\MPLABXProjects\USB.X\Main.asm
                    TEMP2   0x0003a6       data     static E:\Pic_Projects\MPLABXProjects\USB.X\Main.asm
                   TOGGLE   0x00007e       data     static E:\Pic_Projects\MPLABXProjects\USB.X\Main.asm
              USB_dev_req   0x000073       data     static E:\Pic_Projects\MPLABXProjects\USB.X\Main.asm
                  bConfig   0x0003a0       data     static E:\Pic_Projects\MPLABXProjects\USB.X\Main.asm
                   num_gd   0x0003a2       data     static E:\Pic_Projects\MPLABXProjects\USB.X\Main.asm
                  num_rst   0x0003a1       data     static E:\Pic_Projects\MPLABXProjects\USB.X\Main.asm
                   num_sa   0x0003a3       data     static E:\Pic_Projects\MPLABXProjects\USB.X\Main.asm
                       tc   0x0003a8       data     static E:\Pic_Projects\MPLABXProjects\USB.X\Main.asm
                     test   0x0003a9       data     static E:\Pic_Projects\MPLABXProjects\USB.X\Main.asm



                              Symbols - Sorted by Address
                     Name    Address   Location    Storage File                     
                ---------  ---------  ---------  --------- ---------                
                      err   0x000011    program     static E:\Pic_Projects\MPLABXProjects\USB.X\Main.asm
                     idle   0x00001a    program     static E:\Pic_Projects\MPLABXProjects\USB.X\Main.asm
                  tranCom   0x00001c    program     static E:\Pic_Projects\MPLABXProjects\USB.X\Main.asm
                     rset   0x00001e    program     static E:\Pic_Projects\MPLABXProjects\USB.X\Main.asm
                 exit_int   0x000020    program     static E:\Pic_Projects\MPLABXProjects\USB.X\Main.asm
                  InitUSB   0x000025    program     static E:\Pic_Projects\MPLABXProjects\USB.X\Main.asm
                   pll_bk   0x000058    program     static E:\Pic_Projects\MPLABXProjects\USB.X\Main.asm
                   se0_bk   0x00005d    program     static E:\Pic_Projects\MPLABXProjects\USB.X\Main.asm
                 USBReset   0x000061    program     static E:\Pic_Projects\MPLABXProjects\USB.X\Main.asm
                     Idle   0x000076    program     static E:\Pic_Projects\MPLABXProjects\USB.X\Main.asm
             _.org_1_0080   0x000080    program     static E:\Pic_Projects\MPLABXProjects\USB.X\Main.asm
                   act_cf   0x000084    program     static E:\Pic_Projects\MPLABXProjects\USB.X\Main.asm
      Reset_EP0_OutBuffer   0x00008c    program     static E:\Pic_Projects\MPLABXProjects\USB.X\Main.asm
       Reset_EP0_InBuffer   0x000093    program     static E:\Pic_Projects\MPLABXProjects\USB.X\Main.asm
      Reset_EP1_OutBuffer   0x00009a    program     static E:\Pic_Projects\MPLABXProjects\USB.X\Main.asm
       Reset_EP1_InBuffer   0x0000a1    program     static E:\Pic_Projects\MPLABXProjects\USB.X\Main.asm
      Stall_EP0_OutBuffer   0x0000a8    program     static E:\Pic_Projects\MPLABXProjects\USB.X\Main.asm
       Stall_EP0_InBuffer   0x0000ac    program     static E:\Pic_Projects\MPLABXProjects\USB.X\Main.asm
      Stall_EP1_OutBuffer   0x0000b0    program     static E:\Pic_Projects\MPLABXProjects\USB.X\Main.asm
       Stall_EP1_InBuffer   0x0000b4    program     static E:\Pic_Projects\MPLABXProjects\USB.X\Main.asm
            Send_0Len_pkt   0x0000b8    program     static E:\Pic_Projects\MPLABXProjects\USB.X\Main.asm
                 SendData   0x0000c2    program     static E:\Pic_Projects\MPLABXProjects\USB.X\Main.asm
                Init_TMR2   0x0000ce    program     static E:\Pic_Projects\MPLABXProjects\USB.X\Main.asm
                     Main   0x0000d6    program     static E:\Pic_Projects\MPLABXProjects\USB.X\Main.asm
                  loop_bk   0x0000e7    program     static E:\Pic_Projects\MPLABXProjects\USB.X\Main.asm
               ServiceUSB   0x0000f4    program     static E:\Pic_Projects\MPLABXProjects\USB.X\Main.asm
                     EP_0   0x0000f9    program     static E:\Pic_Projects\MPLABXProjects\USB.X\Main.asm
                  EP0_Out   0x0000fd    program     static E:\Pic_Projects\MPLABXProjects\USB.X\Main.asm
                   EP0_In   0x00010b    program     static E:\Pic_Projects\MPLABXProjects\USB.X\Main.asm
                    Setup   0x000115    program     static E:\Pic_Projects\MPLABXProjects\USB.X\Main.asm
             HostToDevice   0x000135    program     static E:\Pic_Projects\MPLABXProjects\USB.X\Main.asm
             DeviceToHost   0x00014c    program     static E:\Pic_Projects\MPLABXProjects\USB.X\Main.asm
          HostToInterface   0x00015b    program     static E:\Pic_Projects\MPLABXProjects\USB.X\Main.asm
          InterfaceToHost   0x00016a    program     static E:\Pic_Projects\MPLABXProjects\USB.X\Main.asm
           HostToEndpoint   0x000179    program     static E:\Pic_Projects\MPLABXProjects\USB.X\Main.asm
           EndpointToHost   0x000184    program     static E:\Pic_Projects\MPLABXProjects\USB.X\Main.asm
                  su_exit   0x00018f    program     static E:\Pic_Projects\MPLABXProjects\USB.X\Main.asm
                       In   0x000194    program     static E:\Pic_Projects\MPLABXProjects\USB.X\Main.asm
                      Out   0x00019a    program     static E:\Pic_Projects\MPLABXProjects\USB.X\Main.asm
                GetStatus   0x0001a2    program     static E:\Pic_Projects\MPLABXProjects\USB.X\Main.asm
             ClearFeature   0x0001ae    program     static E:\Pic_Projects\MPLABXProjects\USB.X\Main.asm
               SetFeature   0x0001b0    program     static E:\Pic_Projects\MPLABXProjects\USB.X\Main.asm
               SetAddress   0x0001b2    program     static E:\Pic_Projects\MPLABXProjects\USB.X\Main.asm
                WriteAddr   0x0001ba    program     static E:\Pic_Projects\MPLABXProjects\USB.X\Main.asm
            SetDescriptor   0x0001c4    program     static E:\Pic_Projects\MPLABXProjects\USB.X\Main.asm
         GetConfiguration   0x0001c6    program     static E:\Pic_Projects\MPLABXProjects\USB.X\Main.asm
         SetConfiguration   0x0001d4    program     static E:\Pic_Projects\MPLABXProjects\USB.X\Main.asm
               configured   0x0001dc    program     static E:\Pic_Projects\MPLABXProjects\USB.X\Main.asm
       GetInterfaceStatus   0x0001e6    program     static E:\Pic_Projects\MPLABXProjects\USB.X\Main.asm
    ClearInterfaceFeature   0x0001f2    program     static E:\Pic_Projects\MPLABXProjects\USB.X\Main.asm
      SetInterfaceFeature   0x0001f4    program     static E:\Pic_Projects\MPLABXProjects\USB.X\Main.asm
          ifGetDescriptor   0x0001f6    program     static E:\Pic_Projects\MPLABXProjects\USB.X\Main.asm
             GetInterface   0x0001f8    program     static E:\Pic_Projects\MPLABXProjects\USB.X\Main.asm
          send_bAlternate   0x0001ff    program     static E:\Pic_Projects\MPLABXProjects\USB.X\Main.asm
             SetInterface   0x000209    program     static E:\Pic_Projects\MPLABXProjects\USB.X\Main.asm
        GetEndpointStatus   0x00020b    program     static E:\Pic_Projects\MPLABXProjects\USB.X\Main.asm
     ClearEndpointFeature   0x000217    program     static E:\Pic_Projects\MPLABXProjects\USB.X\Main.asm
       SetEndpointFeature   0x000219    program     static E:\Pic_Projects\MPLABXProjects\USB.X\Main.asm
             EpSynchFrame   0x00021b    program     static E:\Pic_Projects\MPLABXProjects\USB.X\Main.asm
     ClassSpecificRequest   0x00021d    program     static E:\Pic_Projects\MPLABXProjects\USB.X\Main.asm
              fallthrough   0x000237    program     static E:\Pic_Projects\MPLABXProjects\USB.X\Main.asm
                GetReport   0x000238    program     static E:\Pic_Projects\MPLABXProjects\USB.X\Main.asm
           getInputReport   0x00024c    program     static E:\Pic_Projects\MPLABXProjects\USB.X\Main.asm
         getFeatureReport   0x000257    program     static E:\Pic_Projects\MPLABXProjects\USB.X\Main.asm
                  GetIdle   0x000259    program     static E:\Pic_Projects\MPLABXProjects\USB.X\Main.asm
              GetProtocol   0x00025b    program     static E:\Pic_Projects\MPLABXProjects\USB.X\Main.asm
                SetReport   0x00025d    program     static E:\Pic_Projects\MPLABXProjects\USB.X\Main.asm
              StoreReport   0x000260    program     static E:\Pic_Projects\MPLABXProjects\USB.X\Main.asm
                  SetIdle   0x000266    program     static E:\Pic_Projects\MPLABXProjects\USB.X\Main.asm
              SetProtocol   0x000268    program     static E:\Pic_Projects\MPLABXProjects\USB.X\Main.asm
            send_data_int   0x00026a    program     static E:\Pic_Projects\MPLABXProjects\USB.X\Main.asm
                     EP_1   0x000280    program     static E:\Pic_Projects\MPLABXProjects\USB.X\Main.asm
                   EP1_In   0x000285    program     static E:\Pic_Projects\MPLABXProjects\USB.X\Main.asm
                  EP1_Out   0x000289    program     static E:\Pic_Projects\MPLABXProjects\USB.X\Main.asm
            GetDescriptor   0x00028e    program     static E:\Pic_Projects\MPLABXProjects\USB.X\Descriptors.inc
                   unSupp   0x0002bd    program     static E:\Pic_Projects\MPLABXProjects\USB.X\Descriptors.inc
                    sendD   0x0002c1    program     static E:\Pic_Projects\MPLABXProjects\USB.X\Descriptors.inc
         DeviceDescriptor   0x0002d2    program     static E:\Pic_Projects\MPLABXProjects\USB.X\Descriptors.inc
  ConfigurationDescriptor   0x0002f9    program     static E:\Pic_Projects\MPLABXProjects\USB.X\Descriptors.inc
      InterfaceDescriptor   0x000312    program     static E:\Pic_Projects\MPLABXProjects\USB.X\Descriptors.inc
       EndpointDescriptor   0x000327    program     static E:\Pic_Projects\MPLABXProjects\USB.X\Descriptors.inc
    Endpoint1InDescriptor   0x00032a    program     static E:\Pic_Projects\MPLABXProjects\USB.X\Descriptors.inc
   Endpoint1OutDescriptor   0x00033b    program     static E:\Pic_Projects\MPLABXProjects\USB.X\Descriptors.inc
         StringDescriptor   0x00034c    program     static E:\Pic_Projects\MPLABXProjects\USB.X\Descriptors.inc
                  String0   0x000359    program     static E:\Pic_Projects\MPLABXProjects\USB.X\Descriptors.inc
                  String1   0x000364    program     static E:\Pic_Projects\MPLABXProjects\USB.X\Descriptors.inc
                  String2   0x000387    program     static E:\Pic_Projects\MPLABXProjects\USB.X\Descriptors.inc
            HIDDescriptor   0x0003ae    program     static E:\Pic_Projects\MPLABXProjects\USB.X\Descriptors.inc
         ReportDescriptor   0x0003c3    program     static E:\Pic_Projects\MPLABXProjects\USB.X\Descriptors.inc
                    Pause   0x00040a    program     static E:\Pic_Projects\MPLABXProjects\USB.X\Test.inc
                  psC0_bk   0x000412    program     static E:\Pic_Projects\MPLABXProjects\USB.X\Test.inc
                  psC1_bk   0x000414    program     static E:\Pic_Projects\MPLABXProjects\USB.X\Test.inc
                   psT_bk   0x000416    program     static E:\Pic_Projects\MPLABXProjects\USB.X\Test.inc
                    Flash   0x00041d    program     static E:\Pic_Projects\MPLABXProjects\USB.X\Test.inc
                     flon   0x000428    program     static E:\Pic_Projects\MPLABXProjects\USB.X\Test.inc
                 flonC_bk   0x00042b    program     static E:\Pic_Projects\MPLABXProjects\USB.X\Test.inc
                  flon_bk   0x00042d    program     static E:\Pic_Projects\MPLABXProjects\USB.X\Test.inc
                    floff   0x000431    program     static E:\Pic_Projects\MPLABXProjects\USB.X\Test.inc
                floffC_bk   0x000433    program     static E:\Pic_Projects\MPLABXProjects\USB.X\Test.inc
                 floff_bk   0x000435    program     static E:\Pic_Projects\MPLABXProjects\USB.X\Test.inc
                      Red   0x00043c    program     static E:\Pic_Projects\MPLABXProjects\USB.X\Test.inc
                     Orng   0x00043f    program     static E:\Pic_Projects\MPLABXProjects\USB.X\Test.inc
                      Grn   0x000442    program     static E:\Pic_Projects\MPLABXProjects\USB.X\Test.inc
                     _Grn   0x000445    program     static E:\Pic_Projects\MPLABXProjects\USB.X\Test.inc
                      Clr   0x000448    program     static E:\Pic_Projects\MPLABXProjects\USB.X\Test.inc
                     tRst   0x00044b    program     static E:\Pic_Projects\MPLABXProjects\USB.X\Test.inc
                  setConf   0x000451    program     static E:\Pic_Projects\MPLABXProjects\USB.X\Test.inc
                    incGD   0x000456    program     static E:\Pic_Projects\MPLABXProjects\USB.X\Test.inc
                    incSA   0x00045b    program     static E:\Pic_Projects\MPLABXProjects\USB.X\Test.inc
                 ShowByte   0x000460    program     static E:\Pic_Projects\MPLABXProjects\USB.X\Test.inc
                       hi   0x000465    program     static E:\Pic_Projects\MPLABXProjects\USB.X\Test.inc
                       lo   0x000473    program     static E:\Pic_Projects\MPLABXProjects\USB.X\Test.inc
                 InitTest   0x00047e    program     static E:\Pic_Projects\MPLABXProjects\USB.X\Test.inc
                   it_clr   0x00048b    program     static E:\Pic_Projects\MPLABXProjects\USB.X\Test.inc
                    Sh_xy   0x00048f    program     static E:\Pic_Projects\MPLABXProjects\USB.X\Test.inc
                      nSA   0x000498    program     static E:\Pic_Projects\MPLABXProjects\USB.X\Test.inc
                ShowBytes   0x00049e    program     static E:\Pic_Projects\MPLABXProjects\USB.X\Test.inc
                    t_out   0x0004a9    program     static E:\Pic_Projects\MPLABXProjects\USB.X\Test.inc
                     t_In   0x0004bd    program     static E:\Pic_Projects\MPLABXProjects\USB.X\Test.inc
             _.org_1_04C1   0x0004c1    program     static E:\Pic_Projects\MPLABXProjects\USB.X\Test.inc
                    ds_ex   0x0004c1    program     static E:\Pic_Projects\MPLABXProjects\USB.X\Test.inc
                     TLog   0x0004c3    program     static E:\Pic_Projects\MPLABXProjects\USB.X\Test.inc
             Device_State   0x000070       data     static E:\Pic_Projects\MPLABXProjects\USB.X\Main.asm
               MaskedInts   0x000071       data     static E:\Pic_Projects\MPLABXProjects\USB.X\Main.asm
                     ADDR   0x000072       data     static E:\Pic_Projects\MPLABXProjects\USB.X\Main.asm
              USB_dev_req   0x000073       data     static E:\Pic_Projects\MPLABXProjects\USB.X\Main.asm
                      PID   0x000074       data     static E:\Pic_Projects\MPLABXProjects\USB.X\Main.asm
             Data_wLength   0x000075       data     static E:\Pic_Projects\MPLABXProjects\USB.X\Main.asm
           DescriptorType   0x000076       data     static E:\Pic_Projects\MPLABXProjects\USB.X\Main.asm
          DescriptorIndex   0x000077       data     static E:\Pic_Projects\MPLABXProjects\USB.X\Main.asm
         DescriptorLength   0x000078       data     static E:\Pic_Projects\MPLABXProjects\USB.X\Main.asm
                       IN   0x000079       data     static E:\Pic_Projects\MPLABXProjects\USB.X\Main.asm
                      OUT   0x00007a       data     static E:\Pic_Projects\MPLABXProjects\USB.X\Main.asm
              EP1_dev_req   0x00007b       data     static E:\Pic_Projects\MPLABXProjects\USB.X\Main.asm
                   COUNT0   0x00007c       data     static E:\Pic_Projects\MPLABXProjects\USB.X\Main.asm
                   COUNT1   0x00007d       data     static E:\Pic_Projects\MPLABXProjects\USB.X\Main.asm
                   TOGGLE   0x00007e       data     static E:\Pic_Projects\MPLABXProjects\USB.X\Main.asm
                  bConfig   0x0003a0       data     static E:\Pic_Projects\MPLABXProjects\USB.X\Main.asm
                  num_rst   0x0003a1       data     static E:\Pic_Projects\MPLABXProjects\USB.X\Main.asm
                   num_gd   0x0003a2       data     static E:\Pic_Projects\MPLABXProjects\USB.X\Main.asm
                   num_sa   0x0003a3       data     static E:\Pic_Projects\MPLABXProjects\USB.X\Main.asm
                    TEMP0   0x0003a4       data     static E:\Pic_Projects\MPLABXProjects\USB.X\Main.asm
                    TEMP1   0x0003a5       data     static E:\Pic_Projects\MPLABXProjects\USB.X\Main.asm
                    TEMP2   0x0003a6       data     static E:\Pic_Projects\MPLABXProjects\USB.X\Main.asm
                     LEDS   0x0003a7       data     static E:\Pic_Projects\MPLABXProjects\USB.X\Main.asm
                       tc   0x0003a8       data     static E:\Pic_Projects\MPLABXProjects\USB.X\Main.asm
                     test   0x0003a9       data     static E:\Pic_Projects\MPLABXProjects\USB.X\Main.asm
                       SC   0x000420       data     static E:\Pic_Projects\MPLABXProjects\USB.X\Main.asm
                       S0   0x000421       data     static E:\Pic_Projects\MPLABXProjects\USB.X\Main.asm


